; Function Attrs: nounwind sspstrong uwtable
define internal noundef i64 @grep_regexp_i(i64 %0, i64 noundef %1, i32 noundef %2, ptr noundef %3, i64 %4) #0 {
  %6 = inttoptr i64 %1 to ptr
  switch i32 %2, label %9 [
    i32 0, label %23
    i32 1, label %7
  ]

7:                                                ; preds = %5
  %8 = load i64, ptr %3, align 8, !tbaa !7
  br label %rb_enum_values_pack.exit

9:                                                ; preds = %5
  %10 = sext i32 %2 to i64
  %11 = tail call i64 @rb_ary_new_from_values(i64 noundef %10, ptr noundef %3) #14
  br label %rb_enum_values_pack.exit

rb_enum_values_pack.exit:                         ; preds = %7, %9
  %.0.i = phi i64 [ %8, %7 ], [ %11, %9 ]
  %12 = and i64 %.0.i, 255
  %13 = icmp eq i64 %12, 12
  br i1 %13, label %.thread21, label %14

14:                                               ; preds = %rb_enum_values_pack.exit
  %15 = icmp eq i64 %.0.i, 0
  %16 = and i64 %.0.i, 7
  %17 = icmp ne i64 %16, 0
  %18 = or i1 %15, %17
  br i1 %18, label %23, label %RB_SYMBOL_P.exit

RB_SYMBOL_P.exit:                                 ; preds = %14
  %19 = inttoptr i64 %.0.i to ptr
  %20 = load i64, ptr %19, align 8, !tbaa !20
  %21 = and i64 %20, 31
  %22 = icmp eq i64 %21, 20
  br i1 %22, label %.thread21, label %23

23:                                               ; preds = %RB_SYMBOL_P.exit, %14, %5
  %.0.i1417 = phi i64 [ %.0.i, %RB_SYMBOL_P.exit ], [ %.0.i, %14 ], [ 4, %5 ]
  %24 = tail call i64 @rb_check_string_type(i64 noundef %.0.i1417) #14
  %25 = icmp eq i64 %24, 4
  br i1 %25, label %29, label %.thread21

.thread21:                                        ; preds = %RB_SYMBOL_P.exit, %rb_enum_values_pack.exit, %23
  %.0.i141823 = phi i64 [ %.0.i1417, %23 ], [ %.0.i, %rb_enum_values_pack.exit ], [ %.0.i, %RB_SYMBOL_P.exit ]
  %26 = getelementptr inbounds nuw i8, ptr %6, i64 16
  %27 = load i64, ptr %26, align 8, !tbaa !60
  %28 = tail call i64 @rb_reg_match_p(i64 noundef %27, i64 noundef %.0.i141823, i64 noundef 0) #14
  br label %29

29:                                               ; preds = %23, %.thread21
  %.0.i141824 = phi i64 [ %.0.i141823, %.thread21 ], [ %.0.i1417, %23 ]
  %30 = phi i64 [ %28, %.thread21 ], [ 0, %23 ]
  %31 = getelementptr inbounds nuw i8, ptr %6, i64 32
  %32 = load i64, ptr %31, align 8, !tbaa !22
  %33 = icmp eq i64 %30, %32
  br i1 %33, label %34, label %38

34:                                               ; preds = %29
  %35 = getelementptr inbounds nuw i8, ptr %6, i64 24
  %36 = load i64, ptr %35, align 8, !tbaa !67
  %37 = tail call i64 @rb_ary_push(i64 noundef %36, i64 noundef %.0.i141824) #14
  br label %38

38:                                               ; preds = %34, %29
  ret i64 4
}